target datalayout = "e-m:e-p270:32:32-p271:32:32-p272:64:64-i64:64-i128:128-f80:128-n8:16:32:64-S128"
target triple = "x86_64-pc-linux-gnu"

%struct.OSQPSolver = type { ptr, ptr, ptr, ptr }
%struct.OSQPWorkspace_ = type { ptr, ptr, ptr, ptr, ptr, ptr, ptr, ptr, ptr, ptr, ptr, ptr, ptr, ptr, ptr, ptr, ptr, ptr, ptr, ptr, ptr, ptr, ptr, ptr, ptr, ptr, double, double, double, ptr, i64, i64, i64, i64, ptr }
%struct.OSQPSettings = type { i64, i32, i64, i64, i64, i64, i64, i64, double, i64, double, double, i64, i64, double, i32, i64, i64, double, double, i64, double, double, double, double, i64, i64, double, double, i64 }
%struct.OSQPInfo = type { [32 x i8], i64, i64, double, double, double, i64, i64, double, double, double, double, double, double }
%struct.OSQPSolution = type { ptr, ptr, ptr, ptr }

; Function Attrs: nounwind uwtable
define i64 @has_solution(ptr noundef %0) #0 {
  %2 = alloca ptr, align 8
  store ptr %0, ptr %2, align 8
  %3 = load ptr, ptr %2, align 8
  %4 = getelementptr inbounds %struct.OSQPInfo, ptr %3, i32 0, i32 1
  %5 = load i64, ptr %4, align 8
  %6 = icmp ne i64 %5, 3
  br i1 %6, label %7, label %27

7:                                                ; preds = %1
  %8 = load ptr, ptr %2, align 8
  %9 = getelementptr inbounds %struct.OSQPInfo, ptr %8, i32 0, i32 1
  %10 = load i64, ptr %9, align 8
  %11 = icmp ne i64 %10, 4
  br i1 %11, label %12, label %27

12:                                               ; preds = %7
  %13 = load ptr, ptr %2, align 8
  %14 = getelementptr inbounds %struct.OSQPInfo, ptr %13, i32 0, i32 1
  %15 = load i64, ptr %14, align 8
  %16 = icmp ne i64 %15, 5
  br i1 %16, label %17, label %27

17:                                               ; preds = %12
  %18 = load ptr, ptr %2, align 8
  %19 = getelementptr inbounds %struct.OSQPInfo, ptr %18, i32 0, i32 1
  %20 = load i64, ptr %19, align 8
  %21 = icmp ne i64 %20, 6
  br i1 %21, label %22, label %27

22:                                               ; preds = %17
  %23 = load ptr, ptr %2, align 8
  %24 = getelementptr inbounds %struct.OSQPInfo, ptr %23, i32 0, i32 1
  %25 = load i64, ptr %24, align 8
  %26 = icmp ne i64 %25, 9
  br label %27

27:                                               ; preds = %22, %17, %12, %7, %1
  %28 = phi i1 [ false, %17 ], [ false, %12 ], [ false, %7 ], [ false, %1 ], [ %26, %22 ]
  %29 = zext i1 %28 to i32
  %30 = sext i32 %29 to i64
  ret i64 %30
}

; Function Attrs: nounwind uwtable
define void @store_solution(ptr noundef %0, ptr noundef %1) #0 {
  %3 = alloca ptr, align 8
  %4 = alloca ptr, align 8
  %5 = alloca double, align 8
  %6 = alloca ptr, align 8
  %7 = alloca ptr, align 8
  %8 = alloca ptr, align 8
  store ptr %0, ptr %3, align 8
  store ptr %1, ptr %4, align 8
  %9 = load ptr, ptr %3, align 8
  %10 = getelementptr inbounds %struct.OSQPSolver, ptr %9, i32 0, i32 2
  %11 = load ptr, ptr %10, align 8
  store ptr %11, ptr %6, align 8
  %12 = load ptr, ptr %3, align 8
  %13 = getelementptr inbounds %struct.OSQPSolver, ptr %12, i32 0, i32 0
  %14 = load ptr, ptr %13, align 8
  store ptr %14, ptr %7, align 8
  %15 = load ptr, ptr %3, align 8
  %16 = getelementptr inbounds %struct.OSQPSolver, ptr %15, i32 0, i32 3
  %17 = load ptr, ptr %16, align 8
  store ptr %17, ptr %8, align 8
  %18 = load ptr, ptr %4, align 8
  %19 = icmp ne ptr %18, null
  br i1 %19, label %21, label %20

20:                                               ; preds = %2
  br label %179

21:                                               ; preds = %2
  %22 = load ptr, ptr %6, align 8
  %23 = call i64 @has_solution(ptr noundef %22)
  %24 = icmp ne i64 %23, 0
  br i1 %24, label %25, label %89

25:                                               ; preds = %21
  %26 = load ptr, ptr %7, align 8
  %27 = getelementptr inbounds %struct.OSQPSettings, ptr %26, i32 0, i32 6
  %28 = load i64, ptr %27, align 8
  %29 = icmp ne i64 %28, 0
  br i1 %29, label %30, label %57

30:                                               ; preds = %25
  %31 = load ptr, ptr %8, align 8
  %32 = getelementptr inbounds %struct.OSQPWorkspace_, ptr %31, i32 0, i32 12
  %33 = load ptr, ptr %32, align 8
  %34 = load ptr, ptr %8, align 8
  %35 = getelementptr inbounds %struct.OSQPWorkspace_, ptr %34, i32 0, i32 13
  %36 = load ptr, ptr %35, align 8
  %37 = load ptr, ptr %8, align 8
  %38 = getelementptr inbounds %struct.OSQPWorkspace_, ptr %37, i32 0, i32 6
  %39 = load ptr, ptr %38, align 8
  %40 = load ptr, ptr %8, align 8
  %41 = getelementptr inbounds %struct.OSQPWorkspace_, ptr %40, i32 0, i32 7
  %42 = load ptr, ptr %41, align 8
  %43 = load ptr, ptr %8, align 8
  %44 = call i64 @unscale_solution(ptr noundef %33, ptr noundef %36, ptr noundef %39, ptr noundef %42, ptr noundef %43)
  %45 = load ptr, ptr %4, align 8
  %46 = getelementptr inbounds %struct.OSQPSolution, ptr %45, i32 0, i32 0
  %47 = load ptr, ptr %46, align 8
  %48 = load ptr, ptr %8, align 8
  %49 = getelementptr inbounds %struct.OSQPWorkspace_, ptr %48, i32 0, i32 12
  %50 = load ptr, ptr %49, align 8
  call void @OSQPVectorf_to_raw(ptr noundef %47, ptr noundef %50)
  %51 = load ptr, ptr %4, align 8
  %52 = getelementptr inbounds %struct.OSQPSolution, ptr %51, i32 0, i32 1
  %53 = load ptr, ptr %52, align 8
  %54 = load ptr, ptr %8, align 8
  %55 = getelementptr inbounds %struct.OSQPWorkspace_, ptr %54, i32 0, i32 13
  %56 = load ptr, ptr %55, align 8
  call void @OSQPVectorf_to_raw(ptr noundef %53, ptr noundef %56)
  br label %70

57:                                               ; preds = %25
  %58 = load ptr, ptr %4, align 8
  %59 = getelementptr inbounds %struct.OSQPSolution, ptr %58, i32 0, i32 0
  %60 = load ptr, ptr %59, align 8
  %61 = load ptr, ptr %8, align 8
  %62 = getelementptr inbounds %struct.OSQPWorkspace_, ptr %61, i32 0, i32 6
  %63 = load ptr, ptr %62, align 8
  call void @OSQPVectorf_to_raw(ptr noundef %60, ptr noundef %63)
  %64 = load ptr, ptr %4, align 8
  %65 = getelementptr inbounds %struct.OSQPSolution, ptr %64, i32 0, i32 1
  %66 = load ptr, ptr %65, align 8
  %67 = load ptr, ptr %8, align 8
  %68 = getelementptr inbounds %struct.OSQPWorkspace_, ptr %67, i32 0, i32 7
  %69 = load ptr, ptr %68, align 8
  call void @OSQPVectorf_to_raw(ptr noundef %66, ptr noundef %69)
  br label %70

70:                                               ; preds = %57, %30
  %71 = load ptr, ptr %8, align 8
  %72 = getelementptr inbounds %struct.OSQPWorkspace_, ptr %71, i32 0, i32 17
  %73 = load ptr, ptr %72, align 8
  call void @OSQPVectorf_set_scalar(ptr noundef %73, double noundef 0x41DFF00000000000)
  %74 = load ptr, ptr %8, align 8
  %75 = getelementptr inbounds %struct.OSQPWorkspace_, ptr %74, i32 0, i32 19
  %76 = load ptr, ptr %75, align 8
  call void @OSQPVectorf_set_scalar(ptr noundef %76, double noundef 0x41DFF00000000000)
  %77 = load ptr, ptr %4, align 8
  %78 = getelementptr inbounds %struct.OSQPSolution, ptr %77, i32 0, i32 2
  %79 = load ptr, ptr %78, align 8
  %80 = load ptr, ptr %8, align 8
  %81 = getelementptr inbounds %struct.OSQPWorkspace_, ptr %80, i32 0, i32 17
  %82 = load ptr, ptr %81, align 8
  call void @OSQPVectorf_to_raw(ptr noundef %79, ptr noundef %82)
  %83 = load ptr, ptr %4, align 8
  %84 = getelementptr inbounds %struct.OSQPSolution, ptr %83, i32 0, i32 3
  %85 = load ptr, ptr %84, align 8
  %86 = load ptr, ptr %8, align 8
  %87 = getelementptr inbounds %struct.OSQPWorkspace_, ptr %86, i32 0, i32 19
  %88 = load ptr, ptr %87, align 8
  call void @OSQPVectorf_to_raw(ptr noundef %85, ptr noundef %88)
  br label %179

89:                                               ; preds = %21
  %90 = load ptr, ptr %8, align 8
  %91 = getelementptr inbounds %struct.OSQPWorkspace_, ptr %90, i32 0, i32 6
  %92 = load ptr, ptr %91, align 8
  call void @OSQPVectorf_set_scalar(ptr noundef %92, double noundef 0x41DFF00000000000)
  %93 = load ptr, ptr %8, align 8
  %94 = getelementptr inbounds %struct.OSQPWorkspace_, ptr %93, i32 0, i32 7
  %95 = load ptr, ptr %94, align 8
  call void @OSQPVectorf_set_scalar(ptr noundef %95, double noundef 0x41DFF00000000000)
  %96 = load ptr, ptr %4, align 8
  %97 = getelementptr inbounds %struct.OSQPSolution, ptr %96, i32 0, i32 0
  %98 = load ptr, ptr %97, align 8
  %99 = load ptr, ptr %8, align 8
  %100 = getelementptr inbounds %struct.OSQPWorkspace_, ptr %99, i32 0, i32 6
  %101 = load ptr, ptr %100, align 8
  call void @OSQPVectorf_to_raw(ptr noundef %98, ptr noundef %101)
  %102 = load ptr, ptr %4, align 8
  %103 = getelementptr inbounds %struct.OSQPSolution, ptr %102, i32 0, i32 1
  %104 = load ptr, ptr %103, align 8
  %105 = load ptr, ptr %8, align 8
  %106 = getelementptr inbounds %struct.OSQPWorkspace_, ptr %105, i32 0, i32 7
  %107 = load ptr, ptr %106, align 8
  call void @OSQPVectorf_to_raw(ptr noundef %104, ptr noundef %107)
  %108 = load ptr, ptr %3, align 8
  call void @osqp_cold_start(ptr noundef %108)
  %109 = load ptr, ptr %6, align 8
  %110 = getelementptr inbounds %struct.OSQPInfo, ptr %109, i32 0, i32 1
  %111 = load i64, ptr %110, align 8
  %112 = icmp eq i64 %111, 3
  br i1 %112, label %118, label %113

113:                                              ; preds = %89
  %114 = load ptr, ptr %6, align 8
  %115 = getelementptr inbounds %struct.OSQPInfo, ptr %114, i32 0, i32 1
  %116 = load i64, ptr %115, align 8
  %117 = icmp eq i64 %116, 4
  br i1 %117, label %118, label %143

118:                                              ; preds = %113, %89
  %119 = load ptr, ptr %8, align 8
  %120 = getelementptr inbounds %struct.OSQPWorkspace_, ptr %119, i32 0, i32 17
  %121 = load ptr, ptr %120, align 8
  %122 = call double @OSQPVectorf_norm_inf(ptr noundef %121)
  store double %122, ptr %5, align 8
  %123 = load ptr, ptr %8, align 8
  %124 = getelementptr inbounds %struct.OSQPWorkspace_, ptr %123, i32 0, i32 17
  %125 = load ptr, ptr %124, align 8
  %126 = load double, ptr %5, align 8
  %127 = fdiv double 1.000000e+00, %126
  call void @OSQPVectorf_mult_scalar(ptr noundef %125, double noundef %127)
  %128 = load ptr, ptr %4, align 8
  %129 = getelementptr inbounds %struct.OSQPSolution, ptr %128, i32 0, i32 2
  %130 = load ptr, ptr %129, align 8
  %131 = load ptr, ptr %8, align 8
  %132 = getelementptr inbounds %struct.OSQPWorkspace_, ptr %131, i32 0, i32 17
  %133 = load ptr, ptr %132, align 8
  call void @OSQPVectorf_to_raw(ptr noundef %130, ptr noundef %133)
  %134 = load ptr, ptr %8, align 8
  %135 = getelementptr inbounds %struct.OSQPWorkspace_, ptr %134, i32 0, i32 19
  %136 = load ptr, ptr %135, align 8
  call void @OSQPVectorf_set_scalar(ptr noundef %136, double noundef 0x41DFF00000000000)
  %137 = load ptr, ptr %4, align 8
  %138 = getelementptr inbounds %struct.OSQPSolution, ptr %137, i32 0, i32 3
  %139 = load ptr, ptr %138, align 8
  %140 = load ptr, ptr %8, align 8
  %141 = getelementptr inbounds %struct.OSQPWorkspace_, ptr %140, i32 0, i32 19
  %142 = load ptr, ptr %141, align 8
  call void @OSQPVectorf_to_raw(ptr noundef %139, ptr noundef %142)
  br label %143

143:                                              ; preds = %118, %113
  %144 = load ptr, ptr %6, align 8
  %145 = getelementptr inbounds %struct.OSQPInfo, ptr %144, i32 0, i32 1
  %146 = load i64, ptr %145, align 8
  %147 = icmp eq i64 %146, 5
  br i1 %147, label %153, label %148

148:                                              ; preds = %143
  %149 = load ptr, ptr %6, align 8
  %150 = getelementptr inbounds %struct.OSQPInfo, ptr %149, i32 0, i32 1
  %151 = load i64, ptr %150, align 8
  %152 = icmp eq i64 %151, 6
  br i1 %152, label %153, label %178

153:                                              ; preds = %148, %143
  %154 = load ptr, ptr %8, align 8
  %155 = getelementptr inbounds %struct.OSQPWorkspace_, ptr %154, i32 0, i32 19
  %156 = load ptr, ptr %155, align 8
  %157 = call double @OSQPVectorf_norm_inf(ptr noundef %156)
  store double %157, ptr %5, align 8
  %158 = load ptr, ptr %8, align 8
  %159 = getelementptr inbounds %struct.OSQPWorkspace_, ptr %158, i32 0, i32 19
  %160 = load ptr, ptr %159, align 8
  %161 = load double, ptr %5, align 8
  %162 = fdiv double 1.000000e+00, %161
  call void @OSQPVectorf_mult_scalar(ptr noundef %160, double noundef %162)
  %163 = load ptr, ptr %4, align 8
  %164 = getelementptr inbounds %struct.OSQPSolution, ptr %163, i32 0, i32 3
  %165 = load ptr, ptr %164, align 8
  %166 = load ptr, ptr %8, align 8
  %167 = getelementptr inbounds %struct.OSQPWorkspace_, ptr %166, i32 0, i32 19
  %168 = load ptr, ptr %167, align 8
  call void @OSQPVectorf_to_raw(ptr noundef %165, ptr noundef %168)
  %169 = load ptr, ptr %8, align 8
  %170 = getelementptr inbounds %struct.OSQPWorkspace_, ptr %169, i32 0, i32 17
  %171 = load ptr, ptr %170, align 8
  call void @OSQPVectorf_set_scalar(ptr noundef %171, double noundef 0x41DFF00000000000)
  %172 = load ptr, ptr %4, align 8
  %173 = getelementptr inbounds %struct.OSQPSolution, ptr %172, i32 0, i32 2
  %174 = load ptr, ptr %173, align 8
  %175 = load ptr, ptr %8, align 8
  %176 = getelementptr inbounds %struct.OSQPWorkspace_, ptr %175, i32 0, i32 17
  %177 = load ptr, ptr %176, align 8
  call void @OSQPVectorf_to_raw(ptr noundef %174, ptr noundef %177)
  br label %178

178:                                              ; preds = %153, %148
  br label %179

179:                                              ; preds = %178, %70, %20
  ret void
}