; Function Attrs: nounwind uwtable
define void @store_solution(ptr noundef %0, ptr noundef readonly %1) local_unnamed_addr #0 {
  %3 = load ptr, ptr %0, align 8
  %4 = getelementptr inbounds nuw i8, ptr %0, i64 24
  %5 = load ptr, ptr %4, align 8
  %.not = icmp eq ptr %1, null
  br i1 %.not, label %88, label %6

6:                                                ; preds = %2
  %7 = getelementptr inbounds nuw i8, ptr %0, i64 16
  %8 = load ptr, ptr %7, align 8
  %9 = getelementptr inbounds nuw i8, ptr %8, i64 32
  %10 = load i64, ptr %9, align 8
  switch i64 %10, label %11 [
    i64 9, label %47
    i64 6, label %47
    i64 5, label %47
    i64 4, label %47
    i64 3, label %47
  ]

11:                                               ; preds = %6
  %12 = getelementptr inbounds nuw i8, ptr %3, i64 48
  %13 = load i64, ptr %12, align 8
  %.not55 = icmp eq i64 %13, 0
  %14 = getelementptr inbounds nuw i8, ptr %5, i64 56
  br i1 %.not55, label %29, label %15

15:                                               ; preds = %11
  %16 = getelementptr inbounds nuw i8, ptr %5, i64 96
  %17 = load ptr, ptr %16, align 8
  %18 = getelementptr inbounds nuw i8, ptr %5, i64 104
  %19 = load ptr, ptr %18, align 8
  %20 = getelementptr inbounds nuw i8, ptr %5, i64 48
  %21 = load ptr, ptr %20, align 8
  %22 = load ptr, ptr %14, align 8
  %23 = tail call i64 @unscale_solution(ptr noundef %17, ptr noundef %19, ptr noundef %21, ptr noundef %22, ptr noundef %5) #9
  %24 = load ptr, ptr %1, align 8
  %25 = load ptr, ptr %16, align 8
  tail call void @OSQPVectorf_to_raw(ptr noundef %24, ptr noundef %25) #9
  %26 = getelementptr inbounds nuw i8, ptr %1, i64 8
  %27 = load ptr, ptr %26, align 8
  %28 = load ptr, ptr %18, align 8
  tail call void @OSQPVectorf_to_raw(ptr noundef %27, ptr noundef %28) #9
  br label %36

29:                                               ; preds = %11
  %30 = load ptr, ptr %1, align 8
  %31 = getelementptr inbounds nuw i8, ptr %5, i64 48
  %32 = load ptr, ptr %31, align 8
  tail call void @OSQPVectorf_to_raw(ptr noundef %30, ptr noundef %32) #9
  %33 = getelementptr inbounds nuw i8, ptr %1, i64 8
  %34 = load ptr, ptr %33, align 8
  %35 = load ptr, ptr %14, align 8
  tail call void @OSQPVectorf_to_raw(ptr noundef %34, ptr noundef %35) #9
  br label %36

36:                                               ; preds = %29, %15
  %37 = getelementptr inbounds nuw i8, ptr %5, i64 136
  %38 = load ptr, ptr %37, align 8
  tail call void @OSQPVectorf_set_scalar(ptr noundef %38, double noundef 0x41DFF00000000000) #9
  %39 = getelementptr inbounds nuw i8, ptr %5, i64 152
  %40 = load ptr, ptr %39, align 8
  tail call void @OSQPVectorf_set_scalar(ptr noundef %40, double noundef 0x41DFF00000000000) #9
  %41 = getelementptr inbounds nuw i8, ptr %1, i64 16
  %42 = load ptr, ptr %41, align 8
  %43 = load ptr, ptr %37, align 8
  tail call void @OSQPVectorf_to_raw(ptr noundef %42, ptr noundef %43) #9
  %44 = getelementptr inbounds nuw i8, ptr %1, i64 24
  %45 = load ptr, ptr %44, align 8
  %46 = load ptr, ptr %39, align 8
  tail call void @OSQPVectorf_to_raw(ptr noundef %45, ptr noundef %46) #9
  br label %88

47:                                               ; preds = %6, %6, %6, %6, %6
  %48 = getelementptr inbounds nuw i8, ptr %5, i64 48
  %49 = load ptr, ptr %48, align 8
  tail call void @OSQPVectorf_set_scalar(ptr noundef %49, double noundef 0x41DFF00000000000) #9
  %50 = getelementptr inbounds nuw i8, ptr %5, i64 56
  %51 = load ptr, ptr %50, align 8
  tail call void @OSQPVectorf_set_scalar(ptr noundef %51, double noundef 0x41DFF00000000000) #9
  %52 = load ptr, ptr %1, align 8
  %53 = load ptr, ptr %48, align 8
  tail call void @OSQPVectorf_to_raw(ptr noundef %52, ptr noundef %53) #9
  %54 = getelementptr inbounds nuw i8, ptr %1, i64 8
  %55 = load ptr, ptr %54, align 8
  %56 = load ptr, ptr %50, align 8
  tail call void @OSQPVectorf_to_raw(ptr noundef %55, ptr noundef %56) #9
  tail call void @osqp_cold_start(ptr noundef nonnull %0) #9
  %57 = load i64, ptr %9, align 8
  %.off = add i64 %57, -3
  %switch = icmp ult i64 %.off, 2
  br i1 %switch, label %58, label %72

58:                                               ; preds = %47
  %59 = getelementptr inbounds nuw i8, ptr %5, i64 136
  %60 = load ptr, ptr %59, align 8
  %61 = tail call double @OSQPVectorf_norm_inf(ptr noundef %60) #9
  %62 = load ptr, ptr %59, align 8
  %63 = fdiv double 1.000000e+00, %61
  tail call void @OSQPVectorf_mult_scalar(ptr noundef %62, double noundef %63) #9
  %64 = getelementptr inbounds nuw i8, ptr %1, i64 16
  %65 = load ptr, ptr %64, align 8
  %66 = load ptr, ptr %59, align 8
  tail call void @OSQPVectorf_to_raw(ptr noundef %65, ptr noundef %66) #9
  %67 = getelementptr inbounds nuw i8, ptr %5, i64 152
  %68 = load ptr, ptr %67, align 8
  tail call void @OSQPVectorf_set_scalar(ptr noundef %68, double noundef 0x41DFF00000000000) #9
  %69 = getelementptr inbounds nuw i8, ptr %1, i64 24
  %70 = load ptr, ptr %69, align 8
  %71 = load ptr, ptr %67, align 8
  tail call void @OSQPVectorf_to_raw(ptr noundef %70, ptr noundef %71) #9
  %.pre = load i64, ptr %9, align 8
  br label %72

72:                                               ; preds = %47, %58
  %73 = phi i64 [ %57, %47 ], [ %.pre, %58 ]
  %.off56 = add i64 %73, -5
  %switch57 = icmp ult i64 %.off56, 2
  br i1 %switch57, label %74, label %88

74:                                               ; preds = %72
  %75 = getelementptr inbounds nuw i8, ptr %5, i64 152
  %76 = load ptr, ptr %75, align 8
  %77 = tail call double @OSQPVectorf_norm_inf(ptr noundef %76) #9
  %78 = load ptr, ptr %75, align 8
  %79 = fdiv double 1.000000e+00, %77
  tail call void @OSQPVectorf_mult_scalar(ptr noundef %78, double noundef %79) #9
  %80 = getelementptr inbounds nuw i8, ptr %1, i64 24
  %81 = load ptr, ptr %80, align 8
  %82 = load ptr, ptr %75, align 8
  tail call void @OSQPVectorf_to_raw(ptr noundef %81, ptr noundef %82) #9
  %83 = getelementptr inbounds nuw i8, ptr %5, i64 136
  %84 = load ptr, ptr %83, align 8
  tail call void @OSQPVectorf_set_scalar(ptr noundef %84, double noundef 0x41DFF00000000000) #9
  %85 = getelementptr inbounds nuw i8, ptr %1, i64 16
  %86 = load ptr, ptr %85, align 8
  %87 = load ptr, ptr %83, align 8
  tail call void @OSQPVectorf_to_raw(ptr noundef %86, ptr noundef %87) #9
  br label %88

88:                                               ; preds = %72, %74, %2, %36
  ret void
}